# SymbolsHelper-Confirmed: 5.15.5 amd64
libQt5WebEngine.so.5 libqt5webengine5 #MINVER#
| libqt5webengine5 #MINVER#, qtwebengine-abi-5-15-15
* Build-Depends-Package: qtwebengine5-dev
 Qt_5.0@Qt_5.0 5.7.1
 Qt_5.10@Qt_5.10 5.10.1
 Qt_5.11@Qt_5.11 5.11.1
 Qt_5.12@Qt_5.12 5.12.0
 Qt_5.13@Qt_5.13 5.14.1
 Qt_5.14@Qt_5.14 5.14.1
 Qt_5.15@Qt_5.15 5.15.1
 Qt_5.1@Qt_5.1 5.7.1
 Qt_5.2@Qt_5.2 5.7.1
 Qt_5.3@Qt_5.3 5.7.1
 Qt_5.4@Qt_5.4 5.7.1
 Qt_5.5@Qt_5.5 5.7.1
 Qt_5.6@Qt_5.6 5.7.1
 Qt_5.7@Qt_5.7 5.7.1
 Qt_5.8@Qt_5.8 5.9.0
 Qt_5.9@Qt_5.9 5.9.0
 Qt_5@Qt_5 5.7.1
 (symver)Qt_5_PRIVATE_API 0 1
 _ZN11QtWebEngine10initializeEv@Qt_5 5.7.1
 _ZN21QQuickWebEngineScript10setWorldIdENS_13ScriptWorldIdE@Qt_5 5.9.0
 _ZN21QQuickWebEngineScript10timerEventEP11QTimerEvent@Qt_5 5.9.0
 _ZN21QQuickWebEngineScript11nameChangedERK7QString@Qt_5 5.9.0
 _ZN21QQuickWebEngineScript11qt_metacallEN11QMetaObject4CallEiPPv@Qt_5 5.9.0
 _ZN21QQuickWebEngineScript11qt_metacastEPKc@Qt_5 5.9.0
 _ZN21QQuickWebEngineScript12setSourceUrlERK4QUrl@Qt_5 5.9.0
 _ZN21QQuickWebEngineScript13setSourceCodeERK7QString@Qt_5 5.9.0
 _ZN21QQuickWebEngineScript14worldIdChangedENS_13ScriptWorldIdE@Qt_5 5.9.0
 _ZN21QQuickWebEngineScript16sourceUrlChangedERK4QUrl@Qt_5 5.9.0
 _ZN21QQuickWebEngineScript16staticMetaObjectE@Qt_5 5.9.0
 _ZN21QQuickWebEngineScript17setInjectionPointENS_14InjectionPointE@Qt_5 5.9.0
 _ZN21QQuickWebEngineScript17setRunOnSubframesEb@Qt_5 5.9.0
 _ZN21QQuickWebEngineScript17sourceCodeChangedERK7QString@Qt_5 5.9.0
 _ZN21QQuickWebEngineScript21injectionPointChangedENS_14InjectionPointE@Qt_5 5.9.0
 _ZN21QQuickWebEngineScript21runOnSubframesChangedEb@Qt_5 5.9.0
 _ZN21QQuickWebEngineScript7setNameERK7QString@Qt_5 5.9.0
 _ZN21QQuickWebEngineScriptC1EP7QObject@Qt_5 5.9.0
 _ZN21QQuickWebEngineScriptC2EP7QObject@Qt_5 5.9.0
 _ZN21QQuickWebEngineScriptD0Ev@Qt_5 5.9.0
 _ZN21QQuickWebEngineScriptD1Ev@Qt_5 5.9.0
 _ZN21QQuickWebEngineScriptD2Ev@Qt_5 5.9.0
 _ZN22QQuickWebEngineProfile11qt_metacallEN11QMetaObject4CallEiPPv@Qt_5 5.7.1
 _ZN22QQuickWebEngineProfile11qt_metacastEPKc@Qt_5 5.7.1
 _ZN22QQuickWebEngineProfile11userScriptsEv@Qt_5 5.9.0
 _ZN22QQuickWebEngineProfile12setCachePathERK7QString@Qt_5 5.7.1
 _ZN22QQuickWebEngineProfile14clearHttpCacheEv@Qt_5 5.7.1
 _ZN22QQuickWebEngineProfile14defaultProfileEv@Qt_5 5.7.1
 _ZN22QQuickWebEngineProfile14setStorageNameERK7QString@Qt_5 5.7.1
 _ZN22QQuickWebEngineProfile15removeUrlSchemeERK10QByteArray@Qt_5 5.7.1
 _ZN22QQuickWebEngineProfile15setDownloadPathERK7QString@Qt_5 5.14.1
 _ZN22QQuickWebEngineProfile15setOffTheRecordEb@Qt_5 5.7.1
 _ZN22QQuickWebEngineProfile16cachePathChangedEv@Qt_5 5.7.1
 _ZN22QQuickWebEngineProfile16setHttpCacheTypeENS_13HttpCacheTypeE@Qt_5 5.7.1
 _ZN22QQuickWebEngineProfile16setHttpUserAgentERK7QString@Qt_5 5.7.1
 _ZN22QQuickWebEngineProfile16staticMetaObjectE@Qt_5 5.7.1
 _ZN22QQuickWebEngineProfile18storageNameChangedEv@Qt_5 5.7.1
 _ZN22QQuickWebEngineProfile19downloadPathChangedEv@Qt_5 5.14.1
 _ZN22QQuickWebEngineProfile19offTheRecordChangedEv@Qt_5 5.7.1
 _ZN22QQuickWebEngineProfile19presentNotificationEP22QWebEngineNotification@Qt_5 5.14.1
 _ZN22QQuickWebEngineProfile20httpCacheTypeChangedEv@Qt_5 5.7.1
 _ZN22QQuickWebEngineProfile20httpUserAgentChangedEv@Qt_5 5.7.1
 _ZN22QQuickWebEngineProfile20setSpellCheckEnabledEb@Qt_5 5.9.0
 _ZN22QQuickWebEngineProfile21setHttpAcceptLanguageERK7QString@Qt_5 5.7.1
 _ZN22QQuickWebEngineProfile21setRequestInterceptorEP31QWebEngineUrlRequestInterceptor@Qt_5 5.7.1
 _ZN22QQuickWebEngineProfile22clientCertificateStoreEv@Qt_5 5.14.1
 _ZN22QQuickWebEngineProfile22removeUrlSchemeHandlerEP26QWebEngineUrlSchemeHandler@Qt_5 5.7.1
 _ZN22QQuickWebEngineProfile22setSpellCheckLanguagesERK11QStringList@Qt_5 5.9.0
 _ZN22QQuickWebEngineProfile23installUrlSchemeHandlerERK10QByteArrayP26QWebEngineUrlSchemeHandler@Qt_5 5.7.1
 _ZN22QQuickWebEngineProfile23setHttpCacheMaximumSizeEi@Qt_5 5.7.1
 _ZN22QQuickWebEngineProfile24setPersistentStoragePathERK7QString@Qt_5 5.7.1
 _ZN22QQuickWebEngineProfile24setUrlRequestInterceptorEP31QWebEngineUrlRequestInterceptor@Qt_5 5.14.1
 _ZN22QQuickWebEngineProfile24spellCheckEnabledChangedEv@Qt_5 5.9.0
 _ZN22QQuickWebEngineProfile25httpAcceptLanguageChangedEv@Qt_5 5.7.1
 _ZN22QQuickWebEngineProfile26removeAllUrlSchemeHandlersEv@Qt_5 5.7.1
 _ZN22QQuickWebEngineProfile26setPersistentCookiesPolicyENS_23PersistentCookiesPolicyE@Qt_5 5.7.1
 _ZN22QQuickWebEngineProfile26spellCheckLanguagesChangedEv@Qt_5 5.9.0
 _ZN22QQuickWebEngineProfile27httpCacheMaximumSizeChangedEv@Qt_5 5.7.1
 _ZN22QQuickWebEngineProfile28persistentStoragePathChangedEv@Qt_5 5.7.1
 _ZN22QQuickWebEngineProfile30persistentCookiesPolicyChangedEv@Qt_5 5.7.1
 _ZN22QQuickWebEngineProfile38setUseForGlobalCertificateVerificationEb@Qt_5 5.14.1
 _ZN22QQuickWebEngineProfile42useForGlobalCertificateVerificationChangedEv@Qt_5 5.14.1
 _ZN22QQuickWebEngineProfileC1EP29QQuickWebEngineProfilePrivateP7QObject@Qt_5 5.7.1
 _ZN22QQuickWebEngineProfileC1EP7QObject@Qt_5 5.7.1
 _ZN22QQuickWebEngineProfileC2EP29QQuickWebEngineProfilePrivateP7QObject@Qt_5 5.7.1
 _ZN22QQuickWebEngineProfileC2EP7QObject@Qt_5 5.7.1
 _ZN22QQuickWebEngineProfileD0Ev@Qt_5 5.7.1
 _ZN22QQuickWebEngineProfileD1Ev@Qt_5 5.7.1
 _ZN22QQuickWebEngineProfileD2Ev@Qt_5 5.7.1
 _ZNK21QQuickWebEngineScript10metaObjectEv@Qt_5 5.9.0
 _ZNK21QQuickWebEngineScript10sourceCodeEv@Qt_5 5.9.0
 _ZNK21QQuickWebEngineScript14injectionPointEv@Qt_5 5.9.0
 _ZNK21QQuickWebEngineScript14runOnSubframesEv@Qt_5 5.9.0
 _ZNK21QQuickWebEngineScript4nameEv@Qt_5 5.9.0
 _ZNK21QQuickWebEngineScript7worldIdEv@Qt_5 5.9.0
 _ZNK21QQuickWebEngineScript8toStringEv@Qt_5 5.9.0
 _ZNK21QQuickWebEngineScript9sourceUrlEv@Qt_5 5.9.0
 _ZNK22QQuickWebEngineProfile10metaObjectEv@Qt_5 5.7.1
 _ZNK22QQuickWebEngineProfile11cookieStoreEv@Qt_5 5.7.1
 _ZNK22QQuickWebEngineProfile11storageNameEv@Qt_5 5.7.1
 _ZNK22QQuickWebEngineProfile12downloadPathEv@Qt_5 5.14.1
 _ZNK22QQuickWebEngineProfile13httpCacheTypeEv@Qt_5 5.7.1
 _ZNK22QQuickWebEngineProfile13httpUserAgentEv@Qt_5 5.7.1
 _ZNK22QQuickWebEngineProfile14isOffTheRecordEv@Qt_5 5.7.1
 _ZNK22QQuickWebEngineProfile16urlSchemeHandlerERK10QByteArray@Qt_5 5.7.1
 _ZNK22QQuickWebEngineProfile18httpAcceptLanguageEv@Qt_5 5.7.1
 _ZNK22QQuickWebEngineProfile19isSpellCheckEnabledEv@Qt_5 5.9.0
 _ZNK22QQuickWebEngineProfile19spellCheckLanguagesEv@Qt_5 5.9.0
 _ZNK22QQuickWebEngineProfile20httpCacheMaximumSizeEv@Qt_5 5.7.1
 _ZNK22QQuickWebEngineProfile21persistentStoragePathEv@Qt_5 5.7.1
 _ZNK22QQuickWebEngineProfile23persistentCookiesPolicyEv@Qt_5 5.7.1
 _ZNK22QQuickWebEngineProfile38isUsedForGlobalCertificateVerificationEv@Qt_5 5.14.1
 _ZNK22QQuickWebEngineProfile8settingsEv@Qt_5 5.7.1
 _ZNK22QQuickWebEngineProfile9cachePathEv@Qt_5 5.7.1
 _ZTI21QQuickWebEngineScript@Qt_5 5.9.0
 _ZTI22QQuickWebEngineProfile@Qt_5 5.7.1
 _ZTIN15QtWebEngineCore20ProfileAdapterClientE@Qt_5 5.12.2
 _ZTIN15QtWebEngineCore23RenderViewContextMenuQtE@Qt_5 5.11.1
 _ZTIN15QtWebEngineCore24WebContentsAdapterClientE@Qt_5 5.7.1
 _ZTIN15QtWebEngineCore25TouchHandleDrawableClientE@Qt_5 5.14.1
 _ZTIN15QtWebEngineCore30RenderWidgetHostViewQtDelegateE@Qt_5 5.7.1
 _ZTS21QQuickWebEngineScript@Qt_5 5.9.0
 _ZTS22QQuickWebEngineProfile@Qt_5 5.7.1
 _ZTSN15QtWebEngineCore20ProfileAdapterClientE@Qt_5 5.12.2
 _ZTSN15QtWebEngineCore23RenderViewContextMenuQtE@Qt_5 5.11.1
 _ZTSN15QtWebEngineCore24WebContentsAdapterClientE@Qt_5 5.7.1
 _ZTSN15QtWebEngineCore25TouchHandleDrawableClientE@Qt_5 5.14.1
 _ZTSN15QtWebEngineCore30RenderWidgetHostViewQtDelegateE@Qt_5 5.7.1
 _ZTV21QQuickWebEngineScript@Qt_5 5.9.0
 _ZTV22QQuickWebEngineProfile@Qt_5 5.7.1
